target datalayout = "e-m:e-p270:32:32-p271:32:32-p272:64:64-i64:64-i128:128-f80:128-n8:16:32:64-S128"
target triple = "x86_64-pc-linux-gnu"

%struct.AVCodecContext = type { ptr, i32, i32, ptr, i32, i32, ptr, ptr, ptr, i64, i32, i32, ptr, i32, %struct.AVRational, %struct.AVRational, %struct.AVRational, i32, i32, i32, i32, i32, %struct.AVRational, i32, i32, i32, i32, i32, i32, i32, i32, i32, i32, i32, ptr, ptr, i32, float, float, float, float, float, float, float, float, float, i32, i32, i32, i32, i32, i32, i32, i32, i32, i32, i32, i32, ptr, ptr, ptr, i32, i32, i32, i32, i32, i32, i32, i32, i32, i32, %struct.AVChannelLayout, i32, i32, i32, i32, i32, i32, i32, i32, ptr, i32, i32, i32, float, float, i32, i32, i32, i32, i32, ptr, i64, i64, float, float, i32, i32, ptr, ptr, i32, i32, i32, i32, i32, ptr, ptr, ptr, ptr, i32, i32, [8 x i64], i32, i32, i32, i32, i32, i32, i32, ptr, ptr, i32, i32, i32, i32, i32, i32, i32, i32, i32, i32, ptr, ptr, i32, i32, ptr, ptr, ptr, ptr, i32, i32, i64, i32, i32, i64, ptr, i64, ptr, i32, ptr, i32 }
%struct.AVRational = type { i32, i32 }
%struct.AVChannelLayout = type { i32, i32, %union.anon.0, ptr }
%union.anon.0 = type { i64 }
%struct.Vp3DecodeContext = type { ptr, i32, i32, i32, i32, i32, i32, i32, i32, %struct.ProgressFrame, %struct.ProgressFrame, %struct.ProgressFrame, i32, [64 x i8], [64 x i8], %struct.HpelDSPContext, %struct.VideoDSPContext, %struct.VP3DSPContext, [64 x i16], i32, i32, i32, [3 x i32], i32, [3 x i32], i32, i32, i32, i32, i32, i32, i32, i32, i32, ptr, i32, i32, i32, i32, i32, i32, i32, i32, [2 x i32], [2 x i32], ptr, [3 x i32], [3 x i32], i8, i8, i32, [2 x ptr], [2 x [64 x i16]], [64 x i32], [384 x [64 x i8]], [2 x [3 x i8]], [2 x [3 x [64 x i8]]], [2 x [3 x [64 x i16]]], [3 x [64 x ptr]], ptr, [3 x [64 x i32]], i32, [3 x ptr], ptr, ptr, [3 x i32], ptr, [8 x i8], [3 x [2 x [3 x [64 x i16]]]], ptr, ptr, ptr, [80 x %struct.HuffTable], [64 x i8], [258 x i32], ptr, [8 x i8] }
%struct.ProgressFrame = type { ptr, ptr }
%struct.HpelDSPContext = type { [4 x [4 x ptr]], [4 x [4 x ptr]], [4 x [4 x ptr]], [4 x ptr] }
%struct.VideoDSPContext = type { ptr, ptr }
%struct.VP3DSPContext = type { ptr, ptr, ptr, ptr, ptr, ptr, ptr, ptr }
%struct.HuffTable = type { [32 x %struct.HuffEntry], i8 }
%struct.HuffEntry = type { i8, i8 }

; Function Attrs: cold nounwind optsize uwtable
define internal void @free_tables(ptr noundef %0) #1 {
  %2 = alloca ptr, align 8
  %3 = alloca ptr, align 8
  store ptr %0, ptr %2, align 8, !tbaa !4
  call void @llvm.lifetime.start.p0(i64 8, ptr %3) #9
  %4 = load ptr, ptr %2, align 8, !tbaa !4
  %5 = getelementptr inbounds nuw %struct.AVCodecContext, ptr %4, i32 0, i32 6
  %6 = load ptr, ptr %5, align 8, !tbaa !9
  store ptr %6, ptr %3, align 8, !tbaa !29
  %7 = load ptr, ptr %3, align 8, !tbaa !29
  %8 = getelementptr inbounds nuw %struct.Vp3DecodeContext, ptr %7, i32 0, i32 34
  call void @av_freep(ptr noundef %8)
  %9 = load ptr, ptr %3, align 8, !tbaa !29
  %10 = getelementptr inbounds nuw %struct.Vp3DecodeContext, ptr %9, i32 0, i32 45
  call void @av_freep(ptr noundef %10)
  %11 = load ptr, ptr %3, align 8, !tbaa !29
  %12 = getelementptr inbounds nuw %struct.Vp3DecodeContext, ptr %11, i32 0, i32 64
  call void @av_freep(ptr noundef %12)
  %13 = load ptr, ptr %3, align 8, !tbaa !29
  %14 = getelementptr inbounds nuw %struct.Vp3DecodeContext, ptr %13, i32 0, i32 63
  call void @av_freep(ptr noundef %14)
  %15 = load ptr, ptr %3, align 8, !tbaa !29
  %16 = getelementptr inbounds nuw %struct.Vp3DecodeContext, ptr %15, i32 0, i32 59
  call void @av_freep(ptr noundef %16)
  %17 = load ptr, ptr %3, align 8, !tbaa !29
  %18 = getelementptr inbounds nuw %struct.Vp3DecodeContext, ptr %17, i32 0, i32 69
  call void @av_freep(ptr noundef %18)
  %19 = load ptr, ptr %3, align 8, !tbaa !29
  %20 = getelementptr inbounds nuw %struct.Vp3DecodeContext, ptr %19, i32 0, i32 70
  call void @av_freep(ptr noundef %20)
  %21 = load ptr, ptr %3, align 8, !tbaa !29
  %22 = getelementptr inbounds nuw %struct.Vp3DecodeContext, ptr %21, i32 0, i32 75
  call void @av_freep(ptr noundef %22)
  %23 = load ptr, ptr %3, align 8, !tbaa !29
  %24 = getelementptr inbounds nuw %struct.Vp3DecodeContext, ptr %23, i32 0, i32 51
  %25 = getelementptr inbounds [2 x ptr], ptr %24, i64 0, i64 0
  call void @av_freep(ptr noundef %25)
  %26 = load ptr, ptr %3, align 8, !tbaa !29
  %27 = getelementptr inbounds nuw %struct.Vp3DecodeContext, ptr %26, i32 0, i32 51
  %28 = getelementptr inbounds [2 x ptr], ptr %27, i64 0, i64 1
  call void @av_freep(ptr noundef %28)
  call void @llvm.lifetime.end.p0(i64 8, ptr %3) #9
  ret void
}