; Function Attrs: cold nounwind optsize uwtable
define internal fastcc void @free_tables(ptr %.32.val) unnamed_addr #1 {
  %1 = getelementptr inbounds nuw i8, ptr %.32.val, i64 928
  tail call void @av_freep(ptr noundef nonnull %1) #9
  %2 = getelementptr inbounds nuw i8, ptr %.32.val, i64 984
  tail call void @av_freep(ptr noundef nonnull %2) #9
  %3 = getelementptr inbounds nuw i8, ptr %.32.val, i64 29640
  tail call void @av_freep(ptr noundef nonnull %3) #9
  %4 = getelementptr inbounds nuw i8, ptr %.32.val, i64 29632
  tail call void @av_freep(ptr noundef nonnull %4) #9
  %5 = getelementptr inbounds nuw i8, ptr %.32.val, i64 28824
  tail call void @av_freep(ptr noundef nonnull %5) #9
  %6 = getelementptr inbounds nuw i8, ptr %.32.val, i64 31984
  tail call void @av_freep(ptr noundef nonnull %6) #9
  %7 = getelementptr inbounds nuw i8, ptr %.32.val, i64 31992
  tail call void @av_freep(ptr noundef nonnull %7) #9
  %8 = getelementptr inbounds nuw i8, ptr %.32.val, i64 38304
  tail call void @av_freep(ptr noundef nonnull %8) #9
  %9 = getelementptr inbounds nuw i8, ptr %.32.val, i64 1024
  tail call void @av_freep(ptr noundef nonnull %9) #9
  %10 = getelementptr inbounds nuw i8, ptr %.32.val, i64 1032
  tail call void @av_freep(ptr noundef nonnull %10) #9
  ret void
}